; Function Attrs: mustprogress uwtable
define internal noundef ptr @"_ZNSt17_Function_handlerIFP4exprvEZN3smt10theory_seq12propagate_eqEPN18dependency_managerIN25scoped_dependency_managerINS4_10assumptionEE6configEE10dependencyEPNS3_5enodeESE_E3$_0E9_M_invokeERKSt9_Any_data"(ptr nocapture noundef nonnull readonly align 8 dereferenceable(16) %__functor) #3 align 2 {
entry:
  %__functor.val = load ptr, ptr %__functor, align 8
  %0 = load ptr, ptr %__functor.val, align 8
  %m.i.i.i = getelementptr inbounds i8, ptr %0, i64 24
  %1 = load ptr, ptr %m.i.i.i, align 8
  %2 = getelementptr inbounds i8, ptr %__functor.val, i64 8
  %3 = load ptr, ptr %2, align 8
  %4 = load ptr, ptr %3, align 8
  %5 = load ptr, ptr %4, align 8
  %6 = getelementptr inbounds i8, ptr %__functor.val, i64 16
  %7 = load ptr, ptr %6, align 8
  %8 = load ptr, ptr %7, align 8
  %9 = load ptr, ptr %8, align 8
  %call2.i.i.i.i = tail call noundef ptr @_ZN11ast_manager6mk_appEiiP4exprS1_(ptr noundef nonnull align 8 dereferenceable(976) %1, i32 noundef 0, i32 noundef 2, ptr noundef %5, ptr noundef %9)
  ret ptr %call2.i.i.i.i
}